; Function Attrs: mustprogress nofree norecurse nosync nounwind willreturn memory(argmem: write) uwtable
define hidden noundef i32 @mi_wdupenv_s(ptr noundef writeonly captures(address_is_null) %0, ptr noundef writeonly captures(address_is_null) %1, ptr noundef readnone captures(address_is_null) %2) local_unnamed_addr #5 {
  %4 = icmp eq ptr %0, null
  %5 = icmp eq ptr %2, null
  %or.cond = or i1 %4, %5
  br i1 %or.cond, label %9, label %6

6:                                                ; preds = %3
  %.not = icmp eq ptr %1, null
  br i1 %.not, label %8, label %7

7:                                                ; preds = %6
  store i64 0, ptr %1, align 8, !tbaa !14
  br label %8

8:                                                ; preds = %7, %6
  store ptr null, ptr %0, align 8, !tbaa !18
  br label %9

9:                                                ; preds = %3, %8
  ret i32 22
}